target datalayout = "e-m:e-p270:32:32-p271:32:32-p272:64:64-i64:64-i128:128-f80:128-n8:16:32:64-S128"
target triple = "x86_64-pc-linux-gnu"

%class.DCmdFactory = type <{ ptr, ptr, i8, i8, [2 x i8], i32, i32, [4 x i8] }>

@_ZTV11DCmdFactory = linkonce_odr hidden unnamed_addr constant { [8 x ptr] } { [8 x ptr] [ptr null, ptr null, ptr @__cxa_pure_virtual, ptr @__cxa_pure_virtual, ptr @__cxa_pure_virtual, ptr @__cxa_pure_virtual, ptr @__cxa_pure_virtual, ptr @__cxa_pure_virtual] }, comdat, align 8

; Function Attrs: mustprogress nounwind uwtable
define linkonce_odr hidden noundef i32 @_ZN30JfrConfigureFlightRecorderDCmd13num_argumentsEv() #1 comdat align 2 {
  ret i32 10
}

; Function Attrs: mustprogress nounwind uwtable
define linkonce_odr hidden noundef i32 @_ZN26JfrViewFlightRecordingDCmd13num_argumentsEv() #1 comdat align 2 {
  ret i32 7
}

; Function Attrs: mustprogress nounwind uwtable
define linkonce_odr hidden noundef i32 @_ZN26JfrStopFlightRecordingDCmd13num_argumentsEv() #1 comdat align 2 {
  ret i32 2
}

; Function Attrs: mustprogress nounwind uwtable
define linkonce_odr hidden noundef i32 @_ZN27JfrStartFlightRecordingDCmd13num_argumentsEv() #1 comdat align 2 {
  ret i32 11
}

; Function Attrs: mustprogress nounwind uwtable
define linkonce_odr hidden noundef i32 @_ZN26JfrDumpFlightRecordingDCmd13num_argumentsEv() #1 comdat align 2 {
  ret i32 7
}

; Function Attrs: mustprogress nounwind uwtable
define linkonce_odr hidden noundef i32 @_ZN27JfrCheckFlightRecordingDCmd13num_argumentsEv() #1 comdat align 2 {
  ret i32 2
}

; Function Attrs: mustprogress nounwind uwtable
define linkonce_odr hidden noundef i32 @_ZN15DCmdFactoryImplI30JfrConfigureFlightRecorderDCmdE17get_num_argumentsIS0_TnNSt9enable_ifIXcvbsr3std14is_convertibleIT_4DCmdEE5valueEiE4typeELi0EEEiv() #1 comdat align 2 {
  %1 = alloca i32, align 4
  %2 = call noundef i32 @_ZN30JfrConfigureFlightRecorderDCmd13num_argumentsEv()
  store i32 %2, ptr %1, align 4
  %3 = load i32, ptr %1, align 4
  ret i32 %3
}

; Function Attrs: mustprogress nounwind uwtable
define linkonce_odr hidden noundef i32 @_ZN15DCmdFactoryImplI26JfrViewFlightRecordingDCmdE17get_num_argumentsIS0_TnNSt9enable_ifIXcvbsr3std14is_convertibleIT_4DCmdEE5valueEiE4typeELi0EEEiv() #1 comdat align 2 {
  %1 = alloca i32, align 4
  %2 = call noundef i32 @_ZN26JfrViewFlightRecordingDCmd13num_argumentsEv()
  store i32 %2, ptr %1, align 4
  %3 = load i32, ptr %1, align 4
  ret i32 %3
}

; Function Attrs: mustprogress nounwind uwtable
define linkonce_odr hidden noundef i32 @_ZN15DCmdFactoryImplI26JfrStopFlightRecordingDCmdE17get_num_argumentsIS0_TnNSt9enable_ifIXcvbsr3std14is_convertibleIT_4DCmdEE5valueEiE4typeELi0EEEiv() #1 comdat align 2 {
  %1 = alloca i32, align 4
  %2 = call noundef i32 @_ZN26JfrStopFlightRecordingDCmd13num_argumentsEv()
  store i32 %2, ptr %1, align 4
  %3 = load i32, ptr %1, align 4
  ret i32 %3
}

; Function Attrs: mustprogress nounwind uwtable
define linkonce_odr hidden noundef i32 @_ZN15DCmdFactoryImplI27JfrStartFlightRecordingDCmdE17get_num_argumentsIS0_TnNSt9enable_ifIXcvbsr3std14is_convertibleIT_4DCmdEE5valueEiE4typeELi0EEEiv() #1 comdat align 2 {
  %1 = alloca i32, align 4
  %2 = call noundef i32 @_ZN27JfrStartFlightRecordingDCmd13num_argumentsEv()
  store i32 %2, ptr %1, align 4
  %3 = load i32, ptr %1, align 4
  ret i32 %3
}

; Function Attrs: mustprogress nounwind uwtable
define linkonce_odr hidden noundef i32 @_ZN15DCmdFactoryImplI26JfrDumpFlightRecordingDCmdE17get_num_argumentsIS0_TnNSt9enable_ifIXcvbsr3std14is_convertibleIT_4DCmdEE5valueEiE4typeELi0EEEiv() #1 comdat align 2 {
  %1 = alloca i32, align 4
  %2 = call noundef i32 @_ZN26JfrDumpFlightRecordingDCmd13num_argumentsEv()
  store i32 %2, ptr %1, align 4
  %3 = load i32, ptr %1, align 4
  ret i32 %3
}

; Function Attrs: mustprogress nounwind uwtable
define linkonce_odr hidden void @_ZN11DCmdFactoryC2Eijbb(ptr noundef nonnull align 8 dereferenceable(28) %0, i32 noundef %1, i32 noundef %2, i1 noundef zeroext %3, i1 noundef zeroext %4) unnamed_addr #1 comdat align 2 {
  %6 = alloca ptr, align 8
  %7 = alloca i32, align 4
  %8 = alloca i32, align 4
  %9 = alloca i8, align 1
  %10 = alloca i8, align 1
  store ptr %0, ptr %6, align 8
  store i32 %1, ptr %7, align 4
  store i32 %2, ptr %8, align 4
  %11 = zext i1 %3 to i8
  store i8 %11, ptr %9, align 1
  %12 = zext i1 %4 to i8
  store i8 %12, ptr %10, align 1
  %13 = load ptr, ptr %6, align 8
  store ptr getelementptr inbounds inrange(-16, 48) ({ [8 x ptr] }, ptr @_ZTV11DCmdFactory, i32 0, i32 0, i32 2), ptr %13, align 8
  %14 = getelementptr inbounds %class.DCmdFactory, ptr %13, i32 0, i32 1
  store ptr null, ptr %14, align 8
  %15 = getelementptr inbounds %class.DCmdFactory, ptr %13, i32 0, i32 2
  %16 = load i8, ptr %9, align 1
  %17 = trunc i8 %16 to i1
  %18 = zext i1 %17 to i8
  store i8 %18, ptr %15, align 8
  %19 = getelementptr inbounds %class.DCmdFactory, ptr %13, i32 0, i32 3
  %20 = load i8, ptr %10, align 1
  %21 = trunc i8 %20 to i1
  %22 = zext i1 %21 to i8
  store i8 %22, ptr %19, align 1
  %23 = getelementptr inbounds %class.DCmdFactory, ptr %13, i32 0, i32 5
  %24 = load i32, ptr %8, align 4
  store i32 %24, ptr %23, align 4
  %25 = getelementptr inbounds %class.DCmdFactory, ptr %13, i32 0, i32 6
  %26 = load i32, ptr %7, align 4
  store i32 %26, ptr %25, align 8
  ret void
}

; Function Attrs: mustprogress nounwind uwtable
define linkonce_odr hidden noundef i32 @_ZN15DCmdFactoryImplI27JfrCheckFlightRecordingDCmdE17get_num_argumentsIS0_TnNSt9enable_ifIXcvbsr3std14is_convertibleIT_4DCmdEE5valueEiE4typeELi0EEEiv() #1 comdat align 2 {
  %1 = alloca i32, align 4
  %2 = call noundef i32 @_ZN27JfrCheckFlightRecordingDCmd13num_argumentsEv()
  store i32 %2, ptr %1, align 4
  %3 = load i32, ptr %1, align 4
  ret i32 %3
}

; Function Attrs: mustprogress nounwind uwtable
define linkonce_odr hidden void @_ZN15DCmdFactoryImplI30JfrConfigureFlightRecorderDCmdEC2Ejbb(ptr noundef nonnull align 8 dereferenceable(28) %0, i32 noundef %1, i1 noundef zeroext %2, i1 noundef zeroext %3) unnamed_addr #1 comdat align 2 {
  %5 = alloca ptr, align 8
  %6 = alloca i32, align 4
  %7 = alloca i8, align 1
  %8 = alloca i8, align 1
  store ptr %0, ptr %5, align 8
  store i32 %1, ptr %6, align 4
  %9 = zext i1 %2 to i8
  store i8 %9, ptr %7, align 1
  %10 = zext i1 %3 to i8
  store i8 %10, ptr %8, align 1
  %11 = load ptr, ptr %5, align 8
  %12 = call noundef i32 @_ZN15DCmdFactoryImplI30JfrConfigureFlightRecorderDCmdE17get_num_argumentsIS0_TnNSt9enable_ifIXcvbsr3std14is_convertibleIT_4DCmdEE5valueEiE4typeELi0EEEiv()
  %13 = load i32, ptr %6, align 4
  %14 = load i8, ptr %7, align 1
  %15 = trunc i8 %14 to i1
  %16 = load i8, ptr %8, align 1
  %17 = trunc i8 %16 to i1
  call void @_ZN11DCmdFactoryC2Eijbb(ptr noundef nonnull align 8 dereferenceable(28) %11, i32 noundef %12, i32 noundef %13, i1 noundef zeroext %15, i1 noundef zeroext %17)
  store ptr getelementptr inbounds inrange(-16, 48) ({ [8 x ptr] }, ptr @_ZTV15DCmdFactoryImplI30JfrConfigureFlightRecorderDCmdE, i32 0, i32 0, i32 2), ptr %11, align 8
  ret void
}

; Function Attrs: mustprogress nounwind uwtable
define linkonce_odr hidden void @_ZN15DCmdFactoryImplI26JfrViewFlightRecordingDCmdEC2Ejbb(ptr noundef nonnull align 8 dereferenceable(28) %0, i32 noundef %1, i1 noundef zeroext %2, i1 noundef zeroext %3) unnamed_addr #1 comdat align 2 {
  %5 = alloca ptr, align 8
  %6 = alloca i32, align 4
  %7 = alloca i8, align 1
  %8 = alloca i8, align 1
  store ptr %0, ptr %5, align 8
  store i32 %1, ptr %6, align 4
  %9 = zext i1 %2 to i8
  store i8 %9, ptr %7, align 1
  %10 = zext i1 %3 to i8
  store i8 %10, ptr %8, align 1
  %11 = load ptr, ptr %5, align 8
  %12 = call noundef i32 @_ZN15DCmdFactoryImplI26JfrViewFlightRecordingDCmdE17get_num_argumentsIS0_TnNSt9enable_ifIXcvbsr3std14is_convertibleIT_4DCmdEE5valueEiE4typeELi0EEEiv()
  %13 = load i32, ptr %6, align 4
  %14 = load i8, ptr %7, align 1
  %15 = trunc i8 %14 to i1
  %16 = load i8, ptr %8, align 1
  %17 = trunc i8 %16 to i1
  call void @_ZN11DCmdFactoryC2Eijbb(ptr noundef nonnull align 8 dereferenceable(28) %11, i32 noundef %12, i32 noundef %13, i1 noundef zeroext %15, i1 noundef zeroext %17)
  store ptr getelementptr inbounds inrange(-16, 48) ({ [8 x ptr] }, ptr @_ZTV15DCmdFactoryImplI26JfrViewFlightRecordingDCmdE, i32 0, i32 0, i32 2), ptr %11, align 8
  ret void
}

; Function Attrs: mustprogress nounwind uwtable
define linkonce_odr hidden void @_ZN15DCmdFactoryImplI26JfrStopFlightRecordingDCmdEC2Ejbb(ptr noundef nonnull align 8 dereferenceable(28) %0, i32 noundef %1, i1 noundef zeroext %2, i1 noundef zeroext %3) unnamed_addr #1 comdat align 2 {
  %5 = alloca ptr, align 8
  %6 = alloca i32, align 4
  %7 = alloca i8, align 1
  %8 = alloca i8, align 1
  store ptr %0, ptr %5, align 8
  store i32 %1, ptr %6, align 4
  %9 = zext i1 %2 to i8
  store i8 %9, ptr %7, align 1
  %10 = zext i1 %3 to i8
  store i8 %10, ptr %8, align 1
  %11 = load ptr, ptr %5, align 8
  %12 = call noundef i32 @_ZN15DCmdFactoryImplI26JfrStopFlightRecordingDCmdE17get_num_argumentsIS0_TnNSt9enable_ifIXcvbsr3std14is_convertibleIT_4DCmdEE5valueEiE4typeELi0EEEiv()
  %13 = load i32, ptr %6, align 4
  %14 = load i8, ptr %7, align 1
  %15 = trunc i8 %14 to i1
  %16 = load i8, ptr %8, align 1
  %17 = trunc i8 %16 to i1
  call void @_ZN11DCmdFactoryC2Eijbb(ptr noundef nonnull align 8 dereferenceable(28) %11, i32 noundef %12, i32 noundef %13, i1 noundef zeroext %15, i1 noundef zeroext %17)
  store ptr getelementptr inbounds inrange(-16, 48) ({ [8 x ptr] }, ptr @_ZTV15DCmdFactoryImplI26JfrStopFlightRecordingDCmdE, i32 0, i32 0, i32 2), ptr %11, align 8
  ret void
}

; Function Attrs: mustprogress nounwind uwtable
define linkonce_odr hidden void @_ZN15DCmdFactoryImplI27JfrStartFlightRecordingDCmdEC2Ejbb(ptr noundef nonnull align 8 dereferenceable(28) %0, i32 noundef %1, i1 noundef zeroext %2, i1 noundef zeroext %3) unnamed_addr #1 comdat align 2 {
  %5 = alloca ptr, align 8
  %6 = alloca i32, align 4
  %7 = alloca i8, align 1
  %8 = alloca i8, align 1
  store ptr %0, ptr %5, align 8
  store i32 %1, ptr %6, align 4
  %9 = zext i1 %2 to i8
  store i8 %9, ptr %7, align 1
  %10 = zext i1 %3 to i8
  store i8 %10, ptr %8, align 1
  %11 = load ptr, ptr %5, align 8
  %12 = call noundef i32 @_ZN15DCmdFactoryImplI27JfrStartFlightRecordingDCmdE17get_num_argumentsIS0_TnNSt9enable_ifIXcvbsr3std14is_convertibleIT_4DCmdEE5valueEiE4typeELi0EEEiv()
  %13 = load i32, ptr %6, align 4
  %14 = load i8, ptr %7, align 1
  %15 = trunc i8 %14 to i1
  %16 = load i8, ptr %8, align 1
  %17 = trunc i8 %16 to i1
  call void @_ZN11DCmdFactoryC2Eijbb(ptr noundef nonnull align 8 dereferenceable(28) %11, i32 noundef %12, i32 noundef %13, i1 noundef zeroext %15, i1 noundef zeroext %17)
  store ptr getelementptr inbounds inrange(-16, 48) ({ [8 x ptr] }, ptr @_ZTV15DCmdFactoryImplI27JfrStartFlightRecordingDCmdE, i32 0, i32 0, i32 2), ptr %11, align 8
  ret void
}

; Function Attrs: mustprogress nounwind uwtable
define linkonce_odr hidden void @_ZN15DCmdFactoryImplI26JfrDumpFlightRecordingDCmdEC2Ejbb(ptr noundef nonnull align 8 dereferenceable(28) %0, i32 noundef %1, i1 noundef zeroext %2, i1 noundef zeroext %3) unnamed_addr #1 comdat align 2 {
  %5 = alloca ptr, align 8
  %6 = alloca i32, align 4
  %7 = alloca i8, align 1
  %8 = alloca i8, align 1
  store ptr %0, ptr %5, align 8
  store i32 %1, ptr %6, align 4
  %9 = zext i1 %2 to i8
  store i8 %9, ptr %7, align 1
  %10 = zext i1 %3 to i8
  store i8 %10, ptr %8, align 1
  %11 = load ptr, ptr %5, align 8
  %12 = call noundef i32 @_ZN15DCmdFactoryImplI26JfrDumpFlightRecordingDCmdE17get_num_argumentsIS0_TnNSt9enable_ifIXcvbsr3std14is_convertibleIT_4DCmdEE5valueEiE4typeELi0EEEiv()
  %13 = load i32, ptr %6, align 4
  %14 = load i8, ptr %7, align 1
  %15 = trunc i8 %14 to i1
  %16 = load i8, ptr %8, align 1
  %17 = trunc i8 %16 to i1
  call void @_ZN11DCmdFactoryC2Eijbb(ptr noundef nonnull align 8 dereferenceable(28) %11, i32 noundef %12, i32 noundef %13, i1 noundef zeroext %15, i1 noundef zeroext %17)
  store ptr getelementptr inbounds inrange(-16, 48) ({ [8 x ptr] }, ptr @_ZTV15DCmdFactoryImplI26JfrDumpFlightRecordingDCmdE, i32 0, i32 0, i32 2), ptr %11, align 8
  ret void
}

; Function Attrs: mustprogress nounwind uwtable
define linkonce_odr hidden void @_ZN15DCmdFactoryImplI27JfrCheckFlightRecordingDCmdEC2Ejbb(ptr noundef nonnull align 8 dereferenceable(28) %0, i32 noundef %1, i1 noundef zeroext %2, i1 noundef zeroext %3) unnamed_addr #1 comdat align 2 {
  %5 = alloca ptr, align 8
  %6 = alloca i32, align 4
  %7 = alloca i8, align 1
  %8 = alloca i8, align 1
  store ptr %0, ptr %5, align 8
  store i32 %1, ptr %6, align 4
  %9 = zext i1 %2 to i8
  store i8 %9, ptr %7, align 1
  %10 = zext i1 %3 to i8
  store i8 %10, ptr %8, align 1
  %11 = load ptr, ptr %5, align 8
  %12 = call noundef i32 @_ZN15DCmdFactoryImplI27JfrCheckFlightRecordingDCmdE17get_num_argumentsIS0_TnNSt9enable_ifIXcvbsr3std14is_convertibleIT_4DCmdEE5valueEiE4typeELi0EEEiv()
  %13 = load i32, ptr %6, align 4
  %14 = load i8, ptr %7, align 1
  %15 = trunc i8 %14 to i1
  %16 = load i8, ptr %8, align 1
  %17 = trunc i8 %16 to i1
  call void @_ZN11DCmdFactoryC2Eijbb(ptr noundef nonnull align 8 dereferenceable(28) %11, i32 noundef %12, i32 noundef %13, i1 noundef zeroext %15, i1 noundef zeroext %17)
  store ptr getelementptr inbounds inrange(-16, 48) ({ [8 x ptr] }, ptr @_ZTV15DCmdFactoryImplI27JfrCheckFlightRecordingDCmdE, i32 0, i32 0, i32 2), ptr %11, align 8
  ret void
}

; Function Attrs: mustprogress nounwind uwtable
define hidden noundef zeroext i1 @_Z18register_jfr_dcmdsv() #1 {
  %1 = alloca i64, align 8
  %2 = alloca i8, align 1
  %3 = alloca i64, align 8
  %4 = alloca i8, align 1
  %5 = alloca i64, align 8
  %6 = alloca i8, align 1
  %7 = alloca i64, align 8
  %8 = alloca i8, align 1
  %9 = alloca i64, align 8
  %10 = alloca i8, align 1
  %11 = alloca i64, align 8
  %12 = alloca i8, align 1
  %13 = alloca i64, align 8
  %14 = alloca i64, align 8
  %15 = alloca i64, align 8
  %16 = alloca i64, align 8
  %17 = alloca i64, align 8
  %18 = alloca i64, align 8
  %19 = alloca i32, align 4
  store i32 7, ptr %19, align 4
  store i64 32, ptr %13, align 8
  %20 = load i64, ptr %13, align 8
  store i64 %20, ptr %11, align 8
  store i8 9, ptr %12, align 1
  %21 = load i64, ptr %11, align 8
  %22 = load i8, ptr %12, align 1
  %23 = call noundef ptr @_Z12AllocateHeapm8MEMFLAGSN17AllocFailStrategy13AllocFailEnumE(i64 noundef %21, i8 noundef zeroext %22, i32 noundef 0) #9
  %24 = load i32, ptr %19, align 4
  call void @_ZN15DCmdFactoryImplI27JfrCheckFlightRecordingDCmdEC2Ejbb(ptr noundef nonnull align 8 dereferenceable(28) %23, i32 noundef %24, i1 noundef zeroext true, i1 noundef zeroext false)
  %25 = call noundef i32 @_ZN11DCmdFactory20register_DCmdFactoryEPS_(ptr noundef %23)
  store i64 32, ptr %14, align 8
  %26 = load i64, ptr %14, align 8
  store i64 %26, ptr %9, align 8
  store i8 9, ptr %10, align 1
  %27 = load i64, ptr %9, align 8
  %28 = load i8, ptr %10, align 1
  %29 = call noundef ptr @_Z12AllocateHeapm8MEMFLAGSN17AllocFailStrategy13AllocFailEnumE(i64 noundef %27, i8 noundef zeroext %28, i32 noundef 0) #9
  %30 = load i32, ptr %19, align 4
  call void @_ZN15DCmdFactoryImplI26JfrDumpFlightRecordingDCmdEC2Ejbb(ptr noundef nonnull align 8 dereferenceable(28) %29, i32 noundef %30, i1 noundef zeroext true, i1 noundef zeroext false)
  %31 = call noundef i32 @_ZN11DCmdFactory20register_DCmdFactoryEPS_(ptr noundef %29)
  store i64 32, ptr %15, align 8
  %32 = load i64, ptr %15, align 8
  store i64 %32, ptr %7, align 8
  store i8 9, ptr %8, align 1
  %33 = load i64, ptr %7, align 8
  %34 = load i8, ptr %8, align 1
  %35 = call noundef ptr @_Z12AllocateHeapm8MEMFLAGSN17AllocFailStrategy13AllocFailEnumE(i64 noundef %33, i8 noundef zeroext %34, i32 noundef 0) #9
  %36 = load i32, ptr %19, align 4
  call void @_ZN15DCmdFactoryImplI27JfrStartFlightRecordingDCmdEC2Ejbb(ptr noundef nonnull align 8 dereferenceable(28) %35, i32 noundef %36, i1 noundef zeroext true, i1 noundef zeroext false)
  %37 = call noundef i32 @_ZN11DCmdFactory20register_DCmdFactoryEPS_(ptr noundef %35)
  store i64 32, ptr %16, align 8
  %38 = load i64, ptr %16, align 8
  store i64 %38, ptr %5, align 8
  store i8 9, ptr %6, align 1
  %39 = load i64, ptr %5, align 8
  %40 = load i8, ptr %6, align 1
  %41 = call noundef ptr @_Z12AllocateHeapm8MEMFLAGSN17AllocFailStrategy13AllocFailEnumE(i64 noundef %39, i8 noundef zeroext %40, i32 noundef 0) #9
  %42 = load i32, ptr %19, align 4
  call void @_ZN15DCmdFactoryImplI26JfrStopFlightRecordingDCmdEC2Ejbb(ptr noundef nonnull align 8 dereferenceable(28) %41, i32 noundef %42, i1 noundef zeroext true, i1 noundef zeroext false)
  %43 = call noundef i32 @_ZN11DCmdFactory20register_DCmdFactoryEPS_(ptr noundef %41)
  store i64 32, ptr %17, align 8
  %44 = load i64, ptr %17, align 8
  store i64 %44, ptr %3, align 8
  store i8 9, ptr %4, align 1
  %45 = load i64, ptr %3, align 8
  %46 = load i8, ptr %4, align 1
  %47 = call noundef ptr @_Z12AllocateHeapm8MEMFLAGSN17AllocFailStrategy13AllocFailEnumE(i64 noundef %45, i8 noundef zeroext %46, i32 noundef 0) #9
  %48 = load i32, ptr %19, align 4
  call void @_ZN15DCmdFactoryImplI26JfrViewFlightRecordingDCmdEC2Ejbb(ptr noundef nonnull align 8 dereferenceable(28) %47, i32 noundef %48, i1 noundef zeroext true, i1 noundef zeroext false)
  %49 = call noundef i32 @_ZN11DCmdFactory20register_DCmdFactoryEPS_(ptr noundef %47)
  store i64 32, ptr %18, align 8
  %50 = load i64, ptr %18, align 8
  store i64 %50, ptr %1, align 8
  store i8 9, ptr %2, align 1
  %51 = load i64, ptr %1, align 8
  %52 = load i8, ptr %2, align 1
  %53 = call noundef ptr @_Z12AllocateHeapm8MEMFLAGSN17AllocFailStrategy13AllocFailEnumE(i64 noundef %51, i8 noundef zeroext %52, i32 noundef 0) #9
  %54 = load i32, ptr %19, align 4
  call void @_ZN15DCmdFactoryImplI30JfrConfigureFlightRecorderDCmdEC2Ejbb(ptr noundef nonnull align 8 dereferenceable(28) %53, i32 noundef %54, i1 noundef zeroext true, i1 noundef zeroext false)
  %55 = call noundef i32 @_ZN11DCmdFactory20register_DCmdFactoryEPS_(ptr noundef %53)
  ret i1 true
}