; Function Attrs: mustprogress nounwind uwtable
define hidden noundef zeroext i1 @_Z18register_jfr_dcmdsv() local_unnamed_addr #0 {
  %1 = tail call noundef ptr @_Z12AllocateHeapm8MEMFLAGSN17AllocFailStrategy13AllocFailEnumE(i64 noundef 32, i8 noundef zeroext 9, i32 noundef 0) #13
  %2 = getelementptr inbounds i8, ptr %1, i64 8
  store ptr null, ptr %2, align 8
  %3 = getelementptr inbounds i8, ptr %1, i64 16
  store i8 1, ptr %3, align 8
  %4 = getelementptr inbounds i8, ptr %1, i64 17
  store i8 0, ptr %4, align 1
  %5 = getelementptr inbounds i8, ptr %1, i64 20
  store i32 7, ptr %5, align 4
  %6 = getelementptr inbounds i8, ptr %1, i64 24
  store i32 2, ptr %6, align 8
  store ptr getelementptr inbounds inrange(-16, 48) (i8, ptr @_ZTV15DCmdFactoryImplI27JfrCheckFlightRecordingDCmdE, i64 16), ptr %1, align 8
  %7 = tail call noundef i32 @_ZN11DCmdFactory20register_DCmdFactoryEPS_(ptr noundef nonnull %1) #13
  %8 = tail call noundef ptr @_Z12AllocateHeapm8MEMFLAGSN17AllocFailStrategy13AllocFailEnumE(i64 noundef 32, i8 noundef zeroext 9, i32 noundef 0) #13
  %9 = getelementptr inbounds i8, ptr %8, i64 8
  store ptr null, ptr %9, align 8
  %10 = getelementptr inbounds i8, ptr %8, i64 16
  store i8 1, ptr %10, align 8
  %11 = getelementptr inbounds i8, ptr %8, i64 17
  store i8 0, ptr %11, align 1
  %12 = getelementptr inbounds i8, ptr %8, i64 20
  store i32 7, ptr %12, align 4
  %13 = getelementptr inbounds i8, ptr %8, i64 24
  store i32 7, ptr %13, align 8
  store ptr getelementptr inbounds inrange(-16, 48) (i8, ptr @_ZTV15DCmdFactoryImplI26JfrDumpFlightRecordingDCmdE, i64 16), ptr %8, align 8
  %14 = tail call noundef i32 @_ZN11DCmdFactory20register_DCmdFactoryEPS_(ptr noundef nonnull %8) #13
  %15 = tail call noundef ptr @_Z12AllocateHeapm8MEMFLAGSN17AllocFailStrategy13AllocFailEnumE(i64 noundef 32, i8 noundef zeroext 9, i32 noundef 0) #13
  %16 = getelementptr inbounds i8, ptr %15, i64 8
  store ptr null, ptr %16, align 8
  %17 = getelementptr inbounds i8, ptr %15, i64 16
  store i8 1, ptr %17, align 8
  %18 = getelementptr inbounds i8, ptr %15, i64 17
  store i8 0, ptr %18, align 1
  %19 = getelementptr inbounds i8, ptr %15, i64 20
  store i32 7, ptr %19, align 4
  %20 = getelementptr inbounds i8, ptr %15, i64 24
  store i32 11, ptr %20, align 8
  store ptr getelementptr inbounds inrange(-16, 48) (i8, ptr @_ZTV15DCmdFactoryImplI27JfrStartFlightRecordingDCmdE, i64 16), ptr %15, align 8
  %21 = tail call noundef i32 @_ZN11DCmdFactory20register_DCmdFactoryEPS_(ptr noundef nonnull %15) #13
  %22 = tail call noundef ptr @_Z12AllocateHeapm8MEMFLAGSN17AllocFailStrategy13AllocFailEnumE(i64 noundef 32, i8 noundef zeroext 9, i32 noundef 0) #13
  %23 = getelementptr inbounds i8, ptr %22, i64 8
  store ptr null, ptr %23, align 8
  %24 = getelementptr inbounds i8, ptr %22, i64 16
  store i8 1, ptr %24, align 8
  %25 = getelementptr inbounds i8, ptr %22, i64 17
  store i8 0, ptr %25, align 1
  %26 = getelementptr inbounds i8, ptr %22, i64 20
  store i32 7, ptr %26, align 4
  %27 = getelementptr inbounds i8, ptr %22, i64 24
  store i32 2, ptr %27, align 8
  store ptr getelementptr inbounds inrange(-16, 48) (i8, ptr @_ZTV15DCmdFactoryImplI26JfrStopFlightRecordingDCmdE, i64 16), ptr %22, align 8
  %28 = tail call noundef i32 @_ZN11DCmdFactory20register_DCmdFactoryEPS_(ptr noundef nonnull %22) #13
  %29 = tail call noundef ptr @_Z12AllocateHeapm8MEMFLAGSN17AllocFailStrategy13AllocFailEnumE(i64 noundef 32, i8 noundef zeroext 9, i32 noundef 0) #13
  %30 = getelementptr inbounds i8, ptr %29, i64 8
  store ptr null, ptr %30, align 8
  %31 = getelementptr inbounds i8, ptr %29, i64 16
  store i8 1, ptr %31, align 8
  %32 = getelementptr inbounds i8, ptr %29, i64 17
  store i8 0, ptr %32, align 1
  %33 = getelementptr inbounds i8, ptr %29, i64 20
  store i32 7, ptr %33, align 4
  %34 = getelementptr inbounds i8, ptr %29, i64 24
  store i32 7, ptr %34, align 8
  store ptr getelementptr inbounds inrange(-16, 48) (i8, ptr @_ZTV15DCmdFactoryImplI26JfrViewFlightRecordingDCmdE, i64 16), ptr %29, align 8
  %35 = tail call noundef i32 @_ZN11DCmdFactory20register_DCmdFactoryEPS_(ptr noundef nonnull %29) #13
  %36 = tail call noundef ptr @_Z12AllocateHeapm8MEMFLAGSN17AllocFailStrategy13AllocFailEnumE(i64 noundef 32, i8 noundef zeroext 9, i32 noundef 0) #13
  %37 = getelementptr inbounds i8, ptr %36, i64 8
  store ptr null, ptr %37, align 8
  %38 = getelementptr inbounds i8, ptr %36, i64 16
  store i8 1, ptr %38, align 8
  %39 = getelementptr inbounds i8, ptr %36, i64 17
  store i8 0, ptr %39, align 1
  %40 = getelementptr inbounds i8, ptr %36, i64 20
  store i32 7, ptr %40, align 4
  %41 = getelementptr inbounds i8, ptr %36, i64 24
  store i32 10, ptr %41, align 8
  store ptr getelementptr inbounds inrange(-16, 48) (i8, ptr @_ZTV15DCmdFactoryImplI30JfrConfigureFlightRecorderDCmdE, i64 16), ptr %36, align 8
  %42 = tail call noundef i32 @_ZN11DCmdFactory20register_DCmdFactoryEPS_(ptr noundef nonnull %36) #13
  ret i1 true
}